; Function Attrs: mustprogress uwtable
define noundef ptr @_ZN4cvc58internal7Printer10getPrinterERSo(ptr noundef nonnull align 8 dereferenceable(8) %out) local_unnamed_addr #4 align 2 personality ptr @__gxx_personality_v0 {
entry:
  %ref.tmp.i = alloca %"class.std::unique_ptr", align 8
  %vtable = load ptr, ptr %out, align 8
  %vbase.offset.ptr = getelementptr i8, ptr %vtable, i64 -24
  %vbase.offset = load i64, ptr %vbase.offset.ptr, align 8
  %add.ptr = getelementptr inbounds i8, ptr %out, i64 %vbase.offset
  %call = tail call noundef i32 @_ZN4cvc58internal7options7ioutils17getOutputLanguageERSt8ios_base(ptr noundef nonnull align 8 dereferenceable(216) %add.ptr)
  call void @llvm.lifetime.start.p0(i64 8, ptr nonnull %ref.tmp.i)
  %cmp.i = icmp eq i32 %call, -1
  %spec.store.select.i = select i1 %cmp.i, i32 0, i32 %call
  %conv.i = sext i32 %spec.store.select.i to i64
  %arrayidx.i = getelementptr inbounds [3 x %"class.std::unique_ptr"], ptr @_ZN4cvc58internal7Printer10d_printersE, i64 0, i64 %conv.i
  %0 = load ptr, ptr %arrayidx.i, align 8
  %cmp.i.not.i.i = icmp eq ptr %0, null
  br i1 %cmp.i.not.i.i, label %if.then1.i, label %_ZN4cvc58internal7Printer10getPrinterENS0_8LanguageE.exit

if.then1.i:                                       ; preds = %entry
  call void @_ZN4cvc58internal7Printer11makePrinterENS0_8LanguageE(ptr nonnull sret(%"class.std::unique_ptr") align 8 %ref.tmp.i, i32 noundef %spec.store.select.i)
  %1 = load ptr, ptr %ref.tmp.i, align 8
  %2 = load ptr, ptr %arrayidx.i, align 8
  store ptr %1, ptr %arrayidx.i, align 8
  %tobool.not.i.i.i.i.i = icmp eq ptr %2, null
  br i1 %tobool.not.i.i.i.i.i, label %_ZN4cvc58internal7Printer10getPrinterENS0_8LanguageE.exit, label %_ZNKSt14default_deleteIN4cvc58internal7PrinterEEclEPS2_.exit.i.i.i.i.i

_ZNKSt14default_deleteIN4cvc58internal7PrinterEEclEPS2_.exit.i.i.i.i.i: ; preds = %if.then1.i
  %vtable.i.i.i.i.i.i = load ptr, ptr %2, align 8
  %vfn.i.i.i.i.i.i = getelementptr inbounds i8, ptr %vtable.i.i.i.i.i.i, i64 8
  %3 = load ptr, ptr %vfn.i.i.i.i.i.i, align 8
  tail call void %3(ptr noundef nonnull align 8 dereferenceable(8) %2) #16
  %.pre.pre.i = load ptr, ptr %arrayidx.i, align 8
  br label %_ZN4cvc58internal7Printer10getPrinterENS0_8LanguageE.exit

_ZN4cvc58internal7Printer10getPrinterENS0_8LanguageE.exit: ; preds = %entry, %if.then1.i, %_ZNKSt14default_deleteIN4cvc58internal7PrinterEEclEPS2_.exit.i.i.i.i.i
  %4 = phi ptr [ %0, %entry ], [ %.pre.pre.i, %_ZNKSt14default_deleteIN4cvc58internal7PrinterEEclEPS2_.exit.i.i.i.i.i ], [ %1, %if.then1.i ]
  call void @llvm.lifetime.end.p0(i64 8, ptr nonnull %ref.tmp.i)
  ret ptr %4
}